Certificate:
    Data:
        Version: 3 (0x2)
        Serial Number:
            4f:f4:80:67:19:69:8e:c5:4e:80:92:8c:fe:89:d7:9a:45:3f:5e:15
        Signature Algorithm: sha256WithRSAEncryption
        Issuer: DC=org, DC=simple, O=Simple Inc, CN=Simple Signing CA
        Validity
            Not Before: Apr 30 21:10:47 2025 GMT
            Not After : Apr 30 21:10:47 2027 GMT
        Subject: DC=org, DC=simple, O=Simple Inc, CN=www.simple.org
        Subject Public Key Info:
            Public Key Algorithm: rsaEncryption
                Public-Key: (2048 bit)
                Modulus:
                    00:ac:94:af:79:a8:e1:a0:9d:fd:33:39:b5:da:b8:
                    1b:8c:8a:32:29:c3:b9:35:77:cb:d5:3b:d0:58:df:
                    ef:25:26:7d:e3:f6:4f:c3:69:6a:66:37:af:6f:ea:
                    b6:4c:57:d1:c7:6c:7b:2d:94:3a:cb:d9:37:77:91:
                    75:25:78:e5:8f:ae:2b:36:85:92:ef:95:fd:2f:70:
                    28:17:e5:cc:18:fd:16:5f:aa:55:44:45:80:ac:98:
                    f5:df:1d:7d:30:51:c0:fd:b9:90:88:48:a8:ed:79:
                    46:d0:4c:a3:83:a6:1b:84:24:e3:8c:90:be:6e:65:
                    81:42:2e:df:c0:cc:10:47:2e:5b:16:95:17:a4:5e:
                    26:29:85:48:8f:11:63:8b:c0:0e:66:1f:6f:ce:23:
                    42:1c:34:e4:34:85:6d:2e:4c:23:db:38:a7:f3:78:
                    17:6f:b5:24:26:39:55:df:53:5a:c1:5e:0c:7c:68:
                    64:a6:e0:40:b3:f9:3c:e1:0e:ad:92:6c:43:00:01:
                    07:97:ad:7e:f6:0c:43:e5:bc:20:f8:2f:fb:79:e3:
                    78:90:45:7e:fa:67:c4:16:ea:02:eb:c6:22:11:26:
                    a3:5f:3f:31:f4:d1:85:e5:d7:69:8b:ba:be:47:5a:
                    c2:e4:b2:42:2f:c1:9e:7f:75:d9:90:b4:83:6f:ad:
                    b4:2d
                Exponent: 65537 (0x10001)
        X509v3 extensions:
            X509v3 Key Usage: critical
                Digital Signature, Key Encipherment
            X509v3 Basic Constraints: 
                CA:FALSE
            X509v3 Extended Key Usage: 
                TLS Web Server Authentication, TLS Web Client Authentication
            X509v3 Subject Key Identifier: 
                12:84:E2:41:08:F0:EE:34:FA:CC:74:5A:0F:C6:5D:0F:76:99:E5:D8
            X509v3 Authority Key Identifier: 
                42:4B:25:EA:79:8E:C4:94:66:0C:52:02:3E:F9:CB:39:71:1B:B4:4D
            X509v3 Subject Alternative Name: 
                DNS:www.simple.org
    Signature Algorithm: sha256WithRSAEncryption
    Signature Value:
        98:73:99:a2:ff:c9:61:0e:42:ae:3e:3d:c3:20:f6:fe:90:93:
        10:e4:51:cb:ad:55:33:f5:c5:30:1a:a1:95:af:5c:eb:76:53:
        a5:5a:59:dc:a2:e1:6f:2c:1c:e5:95:09:0b:70:fa:3c:e4:49:
        64:ae:2d:af:d7:11:f1:97:e0:21:5a:0b:a2:5e:f1:15:a8:ba:
        73:20:0d:0f:96:32:8e:48:c4:4a:a3:17:7c:f8:12:90:a9:eb:
        ac:3d:9e:59:ce:80:89:f9:a1:18:dc:5b:e7:2a:df:e3:23:39:
        2f:e0:96:63:fd:14:1a:7f:4f:7b:77:75:f7:45:01:14:e9:c3:
        8a:58:ff:80:8c:09:15:7d:c8:69:06:a2:22:c6:0d:27:71:bb:
        85:61:fb:eb:cf:dd:e9:f1:01:c2:8e:45:83:95:1c:15:28:0b:
        5c:75:ae:7f:70:ac:10:1c:1f:24:19:de:80:72:9e:1b:d3:70:
        37:03:ca:5b:ba:68:9d:c7:53:8e:0d:d9:09:e2:2b:12:17:c5:
        31:19:3f:e7:f9:66:16:f6:0b:22:5b:bb:a8:fb:86:b9:a7:42:
        39:67:4b:4d:06:d0:95:71:e9:be:4e:1f:7d:c2:19:b0:9d:3a:
        aa:57:80:43:ac:50:e9:05:78:50:a4:c7:3d:3e:68:62:d4:1b:
        0b:f8:fd:c7
-----BEGIN CERTIFICATE-----
MIID4DCCAsigAwIBAgIUT/SAZxlpjsVOgJKM/onXmkU/XhUwDQYJKoZIhvcNAQEL
BQAwXjETMBEGCgmSJomT8ixkARkWA29yZzEWMBQGCgmSJomT8ixkARkWBnNpbXBs
ZTETMBEGA1UECgwKU2ltcGxlIEluYzEaMBgGA1UEAwwRU2ltcGxlIFNpZ25pbmcg
Q0EwHhcNMjUwNDMwMjExMDQ3WhcNMjcwNDMwMjExMDQ3WjBbMRMwEQYKCZImiZPy
LGQBGRYDb3JnMRYwFAYKCZImiZPyLGQBGRYGc2ltcGxlMRMwEQYDVQQKDApTaW1w
bGUgSW5jMRcwFQYDVQQDDA53d3cuc2ltcGxlLm9yZzCCASIwDQYJKoZIhvcNAQEB
BQADggEPADCCAQoCggEBAKyUr3mo4aCd/TM5tdq4G4yKMinDuTV3y9U70Fjf7yUm
feP2T8NpamY3r2/qtkxX0cdsey2UOsvZN3eRdSV45Y+uKzaFku+V/S9wKBflzBj9
Fl+qVURFgKyY9d8dfTBRwP25kIhIqO15RtBMo4OmG4Qk44yQvm5lgUIu38DMEEcu
WxaVF6ReJimFSI8RY4vADmYfb84jQhw05DSFbS5MI9s4p/N4F2+1JCY5Vd9TWsFe
DHxoZKbgQLP5POEOrZJsQwABB5etfvYMQ+W8IPgv+3njeJBFfvpnxBbqAuvGIhEm
o18/MfTRheXXaYu6vkdawuSyQi/Bnn912ZC0g2+ttC0CAwEAAaOBmDCBlTAOBgNV
HQ8BAf8EBAMCBaAwCQYDVR0TBAIwADAdBgNVHSUEFjAUBggrBgEFBQcDAQYIKwYB
BQUHAwIwHQYDVR0OBBYEFBKE4kEI8O40+sx0Wg/GXQ92meXYMB8GA1UdIwQYMBaA
FEJLJep5jsSUZgxSAj75yzlxG7RNMBkGA1UdEQQSMBCCDnd3dy5zaW1wbGUub3Jn
MA0GCSqGSIb3DQEBCwUAA4IBAQCYc5mi/8lhDkKuPj3DIPb+kJMQ5FHLrVUz9cUw
GqGVr1zrdlOlWlncouFvLBzllQkLcPo85Elkri2v1xHxl+AhWguiXvEVqLpzIA0P
ljKOSMRKoxd8+BKQqeusPZ5ZzoCJ+aEY3FvnKt/jIzkv4JZj/RQaf097d3X3RQEU
6cOKWP+AjAkVfchpBqIixg0ncbuFYfvrz93p8QHCjkWDlRwVKAtcda5/cKwQHB8k
Gd6Acp4b03A3A8pbumidx1OODdkJ4isSF8UxGT/n+WYW9gsiW7uo+4a5p0I5Z0tN
BtCVcem+Th99whmwnTqqV4BDrFDpBXhQpMc9Pmhi1BsL+P3H
-----END CERTIFICATE-----
