Certificate:
    Data:
        Version: 3 (0x2)
        Serial Number:
            66:7b:19:83:59:aa:9a:47:f0:81:4b:20:a0:a4:63:ce:75:70:62:4a
        Signature Algorithm: sha256WithRSAEncryption
        Issuer: DC=org, DC=simple, O=Simple Inc, CN=Simple Signing CA
        Validity
            Not Before: Apr 30 21:09:17 2025 GMT
            Not After : Apr 30 21:09:17 2027 GMT
        Subject: DC=org, DC=simple, O=Simple Inc, CN=Fred Flinstone/emailAddress=fred@simple.org
        Subject Public Key Info:
            Public Key Algorithm: rsaEncryption
                Public-Key: (2048 bit)
                Modulus:
                    00:b7:1d:39:47:e2:0f:3c:a4:e9:3a:10:f6:87:4f:
                    34:36:92:3f:f0:03:70:87:de:fd:fa:e5:b6:f0:a0:
                    d5:fa:f1:3d:04:8a:05:d4:2d:10:56:1b:1f:cc:d3:
                    ad:00:3a:3e:67:81:2f:29:41:3d:f8:8e:70:64:3f:
                    6c:68:94:31:dd:0d:a4:b6:71:7f:51:d9:19:86:80:
                    7b:f5:0c:59:65:53:d8:53:19:52:94:50:32:a1:42:
                    5c:38:a1:a4:c1:5e:b3:cd:58:ca:e0:ed:a8:43:58:
                    77:56:2a:2c:f0:74:80:bd:ec:16:73:af:26:7d:57:
                    91:94:56:cb:32:8b:45:a6:5f:28:9f:05:4a:19:e7:
                    73:f1:09:91:fe:65:88:ff:69:b7:b4:6e:89:a4:de:
                    93:4a:42:a1:e2:c2:d0:92:d7:4c:cc:75:b7:b7:e2:
                    8f:9f:a2:f7:02:f0:1a:1d:f1:cb:d3:dc:38:1f:bb:
                    39:23:ec:cd:cf:14:0e:b6:2c:e9:c7:a6:d4:47:27:
                    16:8d:c8:1a:87:b6:3b:3c:a1:a6:b0:75:6d:fe:9d:
                    71:72:99:aa:ba:78:05:bc:d9:bd:90:49:76:82:9b:
                    29:b5:4d:2d:84:c3:a1:69:bf:da:16:79:fe:99:4d:
                    1c:0a:5f:e9:3e:37:75:1f:76:e4:68:96:00:25:d3:
                    be:7b
                Exponent: 65537 (0x10001)
        X509v3 extensions:
            X509v3 Key Usage: critical
                Digital Signature, Key Encipherment
            X509v3 Basic Constraints: 
                CA:FALSE
            X509v3 Extended Key Usage: 
                E-mail Protection, TLS Web Client Authentication
            X509v3 Subject Key Identifier: 
                CE:BA:7C:37:63:4C:6E:AB:74:DF:E7:9F:99:84:9B:F4:5D:3C:6C:CE
            X509v3 Authority Key Identifier: 
                42:4B:25:EA:79:8E:C4:94:66:0C:52:02:3E:F9:CB:39:71:1B:B4:4D
            X509v3 Subject Alternative Name: 
                email:fred@simple.org
    Signature Algorithm: sha256WithRSAEncryption
    Signature Value:
        78:76:dd:19:51:cb:87:09:fa:22:09:f8:7a:72:25:7c:bb:ab:
        45:db:03:74:ad:52:3f:25:9f:b8:0c:99:ca:d9:b0:b3:64:0c:
        92:16:15:da:f6:5f:0e:81:13:94:df:98:32:95:14:f6:4a:06:
        3e:a3:3b:fc:89:81:92:14:19:83:0b:c8:6d:71:9f:1b:ff:ff:
        09:a3:e4:e5:9c:37:33:3b:9f:92:d2:b4:d2:65:a1:61:7e:57:
        57:fd:c0:71:25:a9:97:94:7f:f7:dc:4f:db:bf:47:76:ab:77:
        72:56:90:36:d6:32:87:e0:f3:49:e1:10:a7:40:4e:0c:97:6f:
        f0:6f:e6:82:0f:4a:60:4c:4d:7f:99:3a:e2:62:b9:72:70:41:
        18:2e:77:35:88:06:f2:1f:d3:00:8d:b6:d4:61:85:82:4c:11:
        29:be:3d:23:88:0c:d8:02:64:ea:4c:5f:a3:aa:02:7d:c3:a1:
        6c:02:2c:32:92:98:2b:31:8c:ad:8c:79:66:7d:97:6c:14:03:
        c1:c5:e1:e5:f0:c6:c9:79:e7:f0:b9:e9:fb:48:a0:46:31:b6:
        93:0d:8e:01:12:f0:8c:62:e8:13:7b:64:a3:bf:51:5f:e8:4d:
        12:3a:77:27:14:d0:54:ad:0c:23:b6:ae:9b:ee:bb:5a:ab:35:
        04:3b:14:01
-----BEGIN CERTIFICATE-----
MIIEATCCAumgAwIBAgIUZnsZg1mqmkfwgUsgoKRjznVwYkowDQYJKoZIhvcNAQEL
BQAwXjETMBEGCgmSJomT8ixkARkWA29yZzEWMBQGCgmSJomT8ixkARkWBnNpbXBs
ZTETMBEGA1UECgwKU2ltcGxlIEluYzEaMBgGA1UEAwwRU2ltcGxlIFNpZ25pbmcg
Q0EwHhcNMjUwNDMwMjEwOTE3WhcNMjcwNDMwMjEwOTE3WjB7MRMwEQYKCZImiZPy
LGQBGRYDb3JnMRYwFAYKCZImiZPyLGQBGRYGc2ltcGxlMRMwEQYDVQQKDApTaW1w
bGUgSW5jMRcwFQYDVQQDDA5GcmVkIEZsaW5zdG9uZTEeMBwGCSqGSIb3DQEJARYP
ZnJlZEBzaW1wbGUub3JnMIIBIjANBgkqhkiG9w0BAQEFAAOCAQ8AMIIBCgKCAQEA
tx05R+IPPKTpOhD2h080NpI/8ANwh979+uW28KDV+vE9BIoF1C0QVhsfzNOtADo+
Z4EvKUE9+I5wZD9saJQx3Q2ktnF/UdkZhoB79QxZZVPYUxlSlFAyoUJcOKGkwV6z
zVjK4O2oQ1h3Vios8HSAvewWc68mfVeRlFbLMotFpl8onwVKGedz8QmR/mWI/2m3
tG6JpN6TSkKh4sLQktdMzHW3t+KPn6L3AvAaHfHL09w4H7s5I+zNzxQOtizpx6bU
RycWjcgah7Y7PKGmsHVt/p1xcpmqungFvNm9kEl2gpsptU0thMOhab/aFnn+mU0c
Cl/pPjd1H3bkaJYAJdO+ewIDAQABo4GZMIGWMA4GA1UdDwEB/wQEAwIFoDAJBgNV
HRMEAjAAMB0GA1UdJQQWMBQGCCsGAQUFBwMEBggrBgEFBQcDAjAdBgNVHQ4EFgQU
zrp8N2NMbqt03+efmYSb9F08bM4wHwYDVR0jBBgwFoAUQksl6nmOxJRmDFICPvnL
OXEbtE0wGgYDVR0RBBMwEYEPZnJlZEBzaW1wbGUub3JnMA0GCSqGSIb3DQEBCwUA
A4IBAQB4dt0ZUcuHCfoiCfh6ciV8u6tF2wN0rVI/JZ+4DJnK2bCzZAySFhXa9l8O
gROU35gylRT2SgY+ozv8iYGSFBmDC8htcZ8b//8Jo+TlnDczO5+S0rTSZaFhfldX
/cBxJamXlH/33E/bv0d2q3dyVpA21jKH4PNJ4RCnQE4Ml2/wb+aCD0pgTE1/mTri
YrlycEEYLnc1iAbyH9MAjbbUYYWCTBEpvj0jiAzYAmTqTF+jqgJ9w6FsAiwykpgr
MYytjHlmfZdsFAPBxeHl8MbJeefwuen7SKBGMbaTDY4BEvCMYugTe2Sjv1Ff6E0S
OncnFNBUrQwjtq6b7rtaqzUEOxQB
-----END CERTIFICATE-----
