Certificate:
    Data:
        Version: 3 (0x2)
        Serial Number:
            42:5e:ec:f0:03:10:d1:76:55:27:33:11:a4:ec:c9:b7:b3:ee:bb:b1
        Signature Algorithm: sha256WithRSAEncryption
        Issuer: DC=org, DC=simple, O=Simple Inc, CN=Simple Root CA
        Validity
            Not Before: Apr 30 21:06:42 2025 GMT
            Not After : Apr 30 21:06:42 2035 GMT
        Subject: DC=org, DC=simple, O=Simple Inc, CN=Simple Root CA
        Subject Public Key Info:
            Public Key Algorithm: rsaEncryption
                Public-Key: (2048 bit)
                Modulus:
                    00:e5:13:5e:fb:97:fd:62:32:9c:31:45:c5:2c:87:
                    eb:ec:4f:8c:14:01:dd:d5:ec:f2:b3:d4:9f:5f:d1:
                    45:da:ff:46:f3:38:3e:e0:64:35:59:9e:58:f8:40:
                    6a:f6:81:5d:54:61:6c:21:18:d0:22:d5:9e:f0:c0:
                    5f:4a:57:c7:b8:98:a8:ef:29:5d:6a:f1:03:ee:5a:
                    6e:59:d7:9b:9a:f1:85:09:d7:ad:95:3f:57:c7:12:
                    9c:69:ef:5d:78:a7:64:29:60:5e:60:42:28:0a:af:
                    b6:7e:13:d7:f8:e4:af:91:2f:be:60:e9:29:41:07:
                    37:6b:50:92:e9:18:13:38:28:f1:64:ad:54:91:03:
                    47:d3:a3:54:15:85:a3:6f:96:2e:e1:ca:aa:64:9d:
                    5d:16:3a:a6:a6:ca:5e:12:d0:04:65:87:a6:1f:28:
                    99:15:9f:a8:47:36:8e:00:2d:38:c9:9e:d6:4a:ab:
                    05:24:32:da:8c:ff:c3:e7:b2:55:4b:8e:cc:18:86:
                    e2:46:c8:d1:ce:1e:da:aa:03:ce:9a:8f:15:6b:c0:
                    d5:c3:bb:fe:55:bc:c8:98:ab:eb:aa:1b:15:89:c7:
                    92:d3:3e:38:da:30:83:fb:19:63:a2:17:63:fc:e2:
                    67:90:12:17:a2:c3:f1:46:23:9f:ce:d9:58:7b:ff:
                    6e:eb
                Exponent: 65537 (0x10001)
        X509v3 extensions:
            X509v3 Key Usage: critical
                Certificate Sign, CRL Sign
            X509v3 Basic Constraints: critical
                CA:TRUE
            X509v3 Subject Key Identifier: 
                3F:1B:89:F1:86:00:1F:E2:BB:35:8E:70:B3:48:50:8B:3D:2A:89:E9
            X509v3 Authority Key Identifier: 
                3F:1B:89:F1:86:00:1F:E2:BB:35:8E:70:B3:48:50:8B:3D:2A:89:E9
    Signature Algorithm: sha256WithRSAEncryption
    Signature Value:
        20:12:06:e8:20:af:a5:5b:54:ce:04:4c:cf:83:b6:b6:fd:6c:
        9a:50:c2:d5:ad:2a:3d:75:6b:4a:d0:e3:99:91:41:4b:b3:16:
        1d:c0:59:2f:bc:1f:8d:84:63:76:93:c5:2f:ac:ea:f0:2e:e4:
        2d:3f:fd:57:03:44:b9:7a:82:49:25:2b:08:66:f8:f7:34:39:
        20:c5:da:6d:3c:40:d8:32:45:5b:fd:ca:cc:33:42:4c:58:c4:
        9f:76:05:4f:50:88:0d:04:ee:31:0e:cf:dd:2a:0b:a5:2b:a1:
        3d:17:f0:cb:9f:b0:5c:f0:ec:74:01:0a:76:fa:c5:62:c9:d9:
        30:8a:1b:30:3f:a7:72:6d:14:c1:10:b0:ba:e0:0e:40:24:43:
        6e:5c:b6:35:0c:ed:9c:bd:4c:89:59:be:86:e7:19:64:e0:96:
        c8:56:86:13:78:02:cb:ef:b6:b8:57:c1:8d:95:99:3f:7f:76:
        41:ee:47:75:a7:cf:42:7c:fa:df:8d:de:4f:26:fd:64:50:42:
        79:b4:18:69:0d:99:d8:e2:56:31:a0:82:cd:71:e3:98:85:c6:
        96:8c:b2:c3:f7:24:c3:09:44:d2:11:7e:a3:a1:75:be:9d:c7:
        fe:99:b9:b5:34:69:be:64:e4:af:3d:5a:8a:b2:37:91:6c:fc:
        c3:b8:0a:fb
-----BEGIN CERTIFICATE-----
MIIDpzCCAo+gAwIBAgIUQl7s8AMQ0XZVJzMRpOzJt7Puu7EwDQYJKoZIhvcNAQEL
BQAwWzETMBEGCgmSJomT8ixkARkWA29yZzEWMBQGCgmSJomT8ixkARkWBnNpbXBs
ZTETMBEGA1UECgwKU2ltcGxlIEluYzEXMBUGA1UEAwwOU2ltcGxlIFJvb3QgQ0Ew
HhcNMjUwNDMwMjEwNjQyWhcNMzUwNDMwMjEwNjQyWjBbMRMwEQYKCZImiZPyLGQB
GRYDb3JnMRYwFAYKCZImiZPyLGQBGRYGc2ltcGxlMRMwEQYDVQQKDApTaW1wbGUg
SW5jMRcwFQYDVQQDDA5TaW1wbGUgUm9vdCBDQTCCASIwDQYJKoZIhvcNAQEBBQAD
ggEPADCCAQoCggEBAOUTXvuX/WIynDFFxSyH6+xPjBQB3dXs8rPUn1/RRdr/RvM4
PuBkNVmeWPhAavaBXVRhbCEY0CLVnvDAX0pXx7iYqO8pXWrxA+5ablnXm5rxhQnX
rZU/V8cSnGnvXXinZClgXmBCKAqvtn4T1/jkr5EvvmDpKUEHN2tQkukYEzgo8WSt
VJEDR9OjVBWFo2+WLuHKqmSdXRY6pqbKXhLQBGWHph8omRWfqEc2jgAtOMme1kqr
BSQy2oz/w+eyVUuOzBiG4kbI0c4e2qoDzpqPFWvA1cO7/lW8yJir66obFYnHktM+
ONowg/sZY6IXY/ziZ5ASF6LD8UYjn87ZWHv/busCAwEAAaNjMGEwDgYDVR0PAQH/
BAQDAgEGMA8GA1UdEwEB/wQFMAMBAf8wHQYDVR0OBBYEFD8bifGGAB/iuzWOcLNI
UIs9KonpMB8GA1UdIwQYMBaAFD8bifGGAB/iuzWOcLNIUIs9KonpMA0GCSqGSIb3
DQEBCwUAA4IBAQAgEgboIK+lW1TOBEzPg7a2/WyaUMLVrSo9dWtK0OOZkUFLsxYd
wFkvvB+NhGN2k8UvrOrwLuQtP/1XA0S5eoJJJSsIZvj3NDkgxdptPEDYMkVb/crM
M0JMWMSfdgVPUIgNBO4xDs/dKgulK6E9F/DLn7Bc8Ox0AQp2+sViydkwihswP6dy
bRTBELC64A5AJENuXLY1DO2cvUyJWb6G5xlk4JbIVoYTeALL77a4V8GNlZk/f3ZB
7kd1p89CfPrfjd5PJv1kUEJ5tBhpDZnY4lYxoILNceOYhcaWjLLD9yTDCUTSEX6j
oXW+ncf+mbm1NGm+ZOSvPVqKsjeRbPzDuAr7
-----END CERTIFICATE-----
